target datalayout = "e-m:e-p270:32:32-p271:32:32-p272:64:64-i64:64-i128:128-f80:128-n8:16:32:64-S128"
target triple = "x86_64-pc-linux-gnu"

%struct.KINMemRec = type { ptr, double, ptr, ptr, double, double, i32, i64, i64, i64, i64, i32, i32, i32, i32, i32, i32, i32, i32, double, double, double, double, double, double, double, double, double, i32, double, i64, i64, i64, i64, i64, i64, i64, ptr, ptr, ptr, ptr, ptr, ptr, ptr, ptr, ptr, ptr, ptr, i32, i32, double, ptr, ptr, ptr, ptr, ptr, double, ptr, ptr, ptr, ptr, i64, i64, i32, ptr, ptr, i32, ptr, ptr, i64, i64, i64, i64, ptr, ptr, ptr, ptr, i32, ptr, double, double, double, double, double, i32, double, double, double, i32 }

@__func__.KINCreate = private unnamed_addr constant [10 x i8] c"KINCreate\00", align 1
@.str = private unnamed_addr constant [115 x i8] c"generated/home/dtcxzyw/WorkSpace/Projects/compilers/llvm-opt-benchmark/bench/sundials/sundials/src/kinsol/kinsol.c\00", align 1
@.str.1 = private unnamed_addr constant [23 x i8] c"sunctx = NULL illegal.\00", align 1
@.str.2 = private unnamed_addr constant [25 x i8] c"A memory request failed.\00", align 1

; Function Attrs: nounwind uwtable
define ptr @KINCreate(ptr noundef %0) #0 {
  %2 = alloca ptr, align 8
  %3 = alloca ptr, align 8
  %4 = alloca ptr, align 8
  %5 = alloca double, align 8
  %6 = alloca i32, align 4
  store ptr %0, ptr %3, align 8, !tbaa !3
  call void @llvm.lifetime.start.p0(i64 8, ptr %4) #10
  call void @llvm.lifetime.start.p0(i64 8, ptr %5) #10
  %7 = load ptr, ptr %3, align 8, !tbaa !3
  %8 = icmp eq ptr %7, null
  br i1 %8, label %9, label %10

9:                                                ; preds = %1
  call void (ptr, i32, i32, ptr, ptr, ptr, ...) @KINProcessError(ptr noundef null, i32 noundef 0, i32 noundef 219, ptr noundef @__func__.KINCreate, ptr noundef @.str, ptr noundef @.str.1)
  store ptr null, ptr %2, align 8
  store i32 1, ptr %6, align 4
  br label %160

10:                                               ; preds = %1
  store ptr null, ptr %4, align 8, !tbaa !8
  %11 = call noalias ptr @malloc(i64 noundef 672) #11
  store ptr %11, ptr %4, align 8, !tbaa !8
  %12 = load ptr, ptr %4, align 8, !tbaa !8
  %13 = icmp eq ptr %12, null
  br i1 %13, label %14, label %16

14:                                               ; preds = %10
  %15 = load ptr, ptr %4, align 8, !tbaa !8
  call void (ptr, i32, i32, ptr, ptr, ptr, ...) @KINProcessError(ptr noundef %15, i32 noundef 0, i32 noundef 227, ptr noundef @__func__.KINCreate, ptr noundef @.str, ptr noundef @.str.2)
  store ptr null, ptr %2, align 8
  store i32 1, ptr %6, align 4
  br label %160

16:                                               ; preds = %10
  %17 = load ptr, ptr %4, align 8, !tbaa !8
  call void @llvm.memset.p0.i64(ptr align 8 %17, i8 0, i64 672, i1 false)
  %18 = load ptr, ptr %3, align 8, !tbaa !3
  %19 = load ptr, ptr %4, align 8, !tbaa !8
  %20 = getelementptr inbounds nuw %struct.KINMemRec, ptr %19, i32 0, i32 0
  store ptr %18, ptr %20, align 8, !tbaa !10
  store double 0x3CB0000000000000, ptr %5, align 8, !tbaa !20
  %21 = load ptr, ptr %4, align 8, !tbaa !8
  %22 = getelementptr inbounds nuw %struct.KINMemRec, ptr %21, i32 0, i32 1
  store double 0x3CB0000000000000, ptr %22, align 8, !tbaa !21
  %23 = load ptr, ptr %4, align 8, !tbaa !8
  %24 = getelementptr inbounds nuw %struct.KINMemRec, ptr %23, i32 0, i32 2
  store ptr null, ptr %24, align 8, !tbaa !22
  %25 = load ptr, ptr %4, align 8, !tbaa !8
  %26 = getelementptr inbounds nuw %struct.KINMemRec, ptr %25, i32 0, i32 3
  store ptr null, ptr %26, align 8, !tbaa !23
  %27 = load ptr, ptr %4, align 8, !tbaa !8
  %28 = getelementptr inbounds nuw %struct.KINMemRec, ptr %27, i32 0, i32 37
  store ptr null, ptr %28, align 8, !tbaa !24
  %29 = load ptr, ptr %4, align 8, !tbaa !8
  %30 = getelementptr inbounds nuw %struct.KINMemRec, ptr %29, i32 0, i32 38
  store ptr null, ptr %30, align 8, !tbaa !25
  %31 = load ptr, ptr %4, align 8, !tbaa !8
  %32 = getelementptr inbounds nuw %struct.KINMemRec, ptr %31, i32 0, i32 39
  store ptr null, ptr %32, align 8, !tbaa !26
  %33 = load ptr, ptr %4, align 8, !tbaa !8
  %34 = getelementptr inbounds nuw %struct.KINMemRec, ptr %33, i32 0, i32 40
  store ptr null, ptr %34, align 8, !tbaa !27
  %35 = load ptr, ptr %4, align 8, !tbaa !8
  %36 = getelementptr inbounds nuw %struct.KINMemRec, ptr %35, i32 0, i32 41
  store ptr null, ptr %36, align 8, !tbaa !28
  %37 = load ptr, ptr %4, align 8, !tbaa !8
  %38 = getelementptr inbounds nuw %struct.KINMemRec, ptr %37, i32 0, i32 42
  store ptr null, ptr %38, align 8, !tbaa !29
  %39 = load ptr, ptr %4, align 8, !tbaa !8
  %40 = getelementptr inbounds nuw %struct.KINMemRec, ptr %39, i32 0, i32 43
  store ptr null, ptr %40, align 8, !tbaa !30
  %41 = load ptr, ptr %4, align 8, !tbaa !8
  %42 = getelementptr inbounds nuw %struct.KINMemRec, ptr %41, i32 0, i32 44
  store ptr null, ptr %42, align 8, !tbaa !31
  %43 = load ptr, ptr %4, align 8, !tbaa !8
  %44 = getelementptr inbounds nuw %struct.KINMemRec, ptr %43, i32 0, i32 45
  store ptr null, ptr %44, align 8, !tbaa !32
  %45 = load ptr, ptr %4, align 8, !tbaa !8
  %46 = getelementptr inbounds nuw %struct.KINMemRec, ptr %45, i32 0, i32 46
  store ptr null, ptr %46, align 8, !tbaa !33
  %47 = load ptr, ptr %4, align 8, !tbaa !8
  %48 = getelementptr inbounds nuw %struct.KINMemRec, ptr %47, i32 0, i32 47
  store ptr null, ptr %48, align 8, !tbaa !34
  %49 = load ptr, ptr %4, align 8, !tbaa !8
  %50 = getelementptr inbounds nuw %struct.KINMemRec, ptr %49, i32 0, i32 51
  store ptr null, ptr %50, align 8, !tbaa !35
  %51 = load ptr, ptr %4, align 8, !tbaa !8
  %52 = getelementptr inbounds nuw %struct.KINMemRec, ptr %51, i32 0, i32 52
  store ptr null, ptr %52, align 8, !tbaa !36
  %53 = load ptr, ptr %4, align 8, !tbaa !8
  %54 = getelementptr inbounds nuw %struct.KINMemRec, ptr %53, i32 0, i32 53
  store ptr null, ptr %54, align 8, !tbaa !37
  %55 = load ptr, ptr %4, align 8, !tbaa !8
  %56 = getelementptr inbounds nuw %struct.KINMemRec, ptr %55, i32 0, i32 54
  store ptr null, ptr %56, align 8, !tbaa !38
  %57 = load ptr, ptr %4, align 8, !tbaa !8
  %58 = getelementptr inbounds nuw %struct.KINMemRec, ptr %57, i32 0, i32 55
  store ptr null, ptr %58, align 8, !tbaa !39
  %59 = load ptr, ptr %4, align 8, !tbaa !8
  %60 = getelementptr inbounds nuw %struct.KINMemRec, ptr %59, i32 0, i32 59
  store ptr null, ptr %60, align 8, !tbaa !40
  %61 = load ptr, ptr %4, align 8, !tbaa !8
  %62 = getelementptr inbounds nuw %struct.KINMemRec, ptr %61, i32 0, i32 57
  store ptr null, ptr %62, align 8, !tbaa !41
  %63 = load ptr, ptr %4, align 8, !tbaa !8
  %64 = getelementptr inbounds nuw %struct.KINMemRec, ptr %63, i32 0, i32 58
  store ptr null, ptr %64, align 8, !tbaa !42
  %65 = load ptr, ptr %4, align 8, !tbaa !8
  %66 = getelementptr inbounds nuw %struct.KINMemRec, ptr %65, i32 0, i32 60
  store ptr null, ptr %66, align 8, !tbaa !43
  %67 = load ptr, ptr %4, align 8, !tbaa !8
  %68 = getelementptr inbounds nuw %struct.KINMemRec, ptr %67, i32 0, i32 67
  store ptr null, ptr %68, align 8, !tbaa !44
  %69 = load ptr, ptr %4, align 8, !tbaa !8
  %70 = getelementptr inbounds nuw %struct.KINMemRec, ptr %69, i32 0, i32 68
  store ptr null, ptr %70, align 8, !tbaa !45
  %71 = load ptr, ptr %4, align 8, !tbaa !8
  %72 = getelementptr inbounds nuw %struct.KINMemRec, ptr %71, i32 0, i32 78
  store ptr null, ptr %72, align 8, !tbaa !46
  %73 = load ptr, ptr %4, align 8, !tbaa !8
  %74 = getelementptr inbounds nuw %struct.KINMemRec, ptr %73, i32 0, i32 50
  store double 1.000000e+00, ptr %74, align 8, !tbaa !47
  %75 = load ptr, ptr %4, align 8, !tbaa !8
  %76 = getelementptr inbounds nuw %struct.KINMemRec, ptr %75, i32 0, i32 49
  store i32 0, ptr %76, align 4, !tbaa !48
  %77 = load ptr, ptr %4, align 8, !tbaa !8
  %78 = getelementptr inbounds nuw %struct.KINMemRec, ptr %77, i32 0, i32 61
  store i64 0, ptr %78, align 8, !tbaa !49
  %79 = load ptr, ptr %4, align 8, !tbaa !8
  %80 = getelementptr inbounds nuw %struct.KINMemRec, ptr %79, i32 0, i32 62
  store i64 0, ptr %80, align 8, !tbaa !50
  %81 = load ptr, ptr %4, align 8, !tbaa !8
  %82 = getelementptr inbounds nuw %struct.KINMemRec, ptr %81, i32 0, i32 63
  store i32 0, ptr %82, align 8, !tbaa !51
  %83 = load ptr, ptr %4, align 8, !tbaa !8
  %84 = getelementptr inbounds nuw %struct.KINMemRec, ptr %83, i32 0, i32 64
  store ptr null, ptr %84, align 8, !tbaa !52
  %85 = load ptr, ptr %4, align 8, !tbaa !8
  %86 = getelementptr inbounds nuw %struct.KINMemRec, ptr %85, i32 0, i32 65
  store ptr null, ptr %86, align 8, !tbaa !53
  %87 = load ptr, ptr %4, align 8, !tbaa !8
  %88 = getelementptr inbounds nuw %struct.KINMemRec, ptr %87, i32 0, i32 56
  store double 1.000000e+00, ptr %88, align 8, !tbaa !54
  %89 = load ptr, ptr %4, align 8, !tbaa !8
  %90 = getelementptr inbounds nuw %struct.KINMemRec, ptr %89, i32 0, i32 66
  store i32 0, ptr %90, align 8, !tbaa !55
  %91 = load ptr, ptr %4, align 8, !tbaa !8
  %92 = getelementptr inbounds nuw %struct.KINMemRec, ptr %91, i32 0, i32 13
  store i32 0, ptr %92, align 8, !tbaa !56
  %93 = load ptr, ptr %4, align 8, !tbaa !8
  %94 = getelementptr inbounds nuw %struct.KINMemRec, ptr %93, i32 0, i32 48
  store i32 0, ptr %94, align 8, !tbaa !57
  %95 = load ptr, ptr %4, align 8, !tbaa !8
  %96 = getelementptr inbounds nuw %struct.KINMemRec, ptr %95, i32 0, i32 7
  store i64 200, ptr %96, align 8, !tbaa !58
  %97 = load ptr, ptr %4, align 8, !tbaa !8
  %98 = getelementptr inbounds nuw %struct.KINMemRec, ptr %97, i32 0, i32 28
  store i32 0, ptr %98, align 8, !tbaa !59
  %99 = load ptr, ptr %4, align 8, !tbaa !8
  %100 = getelementptr inbounds nuw %struct.KINMemRec, ptr %99, i32 0, i32 8
  store i64 10, ptr %100, align 8, !tbaa !60
  %101 = load ptr, ptr %4, align 8, !tbaa !8
  %102 = getelementptr inbounds nuw %struct.KINMemRec, ptr %101, i32 0, i32 16
  store i32 0, ptr %102, align 4, !tbaa !61
  %103 = load ptr, ptr %4, align 8, !tbaa !8
  %104 = getelementptr inbounds nuw %struct.KINMemRec, ptr %103, i32 0, i32 9
  store i64 5, ptr %104, align 8, !tbaa !62
  %105 = load ptr, ptr %4, align 8, !tbaa !8
  %106 = getelementptr inbounds nuw %struct.KINMemRec, ptr %105, i32 0, i32 18
  store i32 0, ptr %106, align 4, !tbaa !63
  %107 = load ptr, ptr %4, align 8, !tbaa !8
  %108 = getelementptr inbounds nuw %struct.KINMemRec, ptr %107, i32 0, i32 10
  store i64 10, ptr %108, align 8, !tbaa !64
  %109 = load ptr, ptr %4, align 8, !tbaa !8
  %110 = getelementptr inbounds nuw %struct.KINMemRec, ptr %109, i32 0, i32 29
  store double 2.000000e+00, ptr %110, align 8, !tbaa !65
  %111 = load ptr, ptr %4, align 8, !tbaa !8
  %112 = getelementptr inbounds nuw %struct.KINMemRec, ptr %111, i32 0, i32 12
  store i32 0, ptr %112, align 4, !tbaa !66
  %113 = load ptr, ptr %4, align 8, !tbaa !8
  %114 = getelementptr inbounds nuw %struct.KINMemRec, ptr %113, i32 0, i32 20
  store double 0.000000e+00, ptr %114, align 8, !tbaa !67
  %115 = load double, ptr %5, align 8, !tbaa !20
  %116 = fcmp ole double %115, 0.000000e+00
  br i1 %116, label %117, label %118

117:                                              ; preds = %16
  br label %121

118:                                              ; preds = %16
  %119 = load double, ptr %5, align 8, !tbaa !20
  %120 = call double @sqrt(double noundef %119) #10, !tbaa !68
  br label %121

121:                                              ; preds = %118, %117
  %122 = phi double [ 0.000000e+00, %117 ], [ %120, %118 ]
  %123 = load ptr, ptr %4, align 8, !tbaa !8
  %124 = getelementptr inbounds nuw %struct.KINMemRec, ptr %123, i32 0, i32 21
  store double %122, ptr %124, align 8, !tbaa !69
  %125 = load double, ptr %5, align 8, !tbaa !20
  %126 = call double @SUNRpowerR(double noundef %125, double noundef 0x3FE5555555555556)
  %127 = load ptr, ptr %4, align 8, !tbaa !8
  %128 = getelementptr inbounds nuw %struct.KINMemRec, ptr %127, i32 0, i32 5
  store double %126, ptr %128, align 8, !tbaa !70
  %129 = load double, ptr %5, align 8, !tbaa !20
  %130 = call double @SUNRpowerR(double noundef %129, double noundef 0x3FD5555555555555)
  %131 = load ptr, ptr %4, align 8, !tbaa !8
  %132 = getelementptr inbounds nuw %struct.KINMemRec, ptr %131, i32 0, i32 4
  store double %130, ptr %132, align 8, !tbaa !71
  %133 = load ptr, ptr %4, align 8, !tbaa !8
  %134 = getelementptr inbounds nuw %struct.KINMemRec, ptr %133, i32 0, i32 11
  store i32 1, ptr %134, align 8, !tbaa !72
  %135 = load ptr, ptr %4, align 8, !tbaa !8
  %136 = getelementptr inbounds nuw %struct.KINMemRec, ptr %135, i32 0, i32 25
  store double 1.000000e-01, ptr %136, align 8, !tbaa !73
  %137 = load ptr, ptr %4, align 8, !tbaa !8
  %138 = getelementptr inbounds nuw %struct.KINMemRec, ptr %137, i32 0, i32 27
  store double 2.000000e+00, ptr %138, align 8, !tbaa !74
  %139 = load ptr, ptr %4, align 8, !tbaa !8
  %140 = getelementptr inbounds nuw %struct.KINMemRec, ptr %139, i32 0, i32 26
  store double 9.000000e-01, ptr %140, align 8, !tbaa !75
  %141 = load ptr, ptr %4, align 8, !tbaa !8
  %142 = getelementptr inbounds nuw %struct.KINMemRec, ptr %141, i32 0, i32 88
  store i32 0, ptr %142, align 8, !tbaa !76
  %143 = load ptr, ptr %4, align 8, !tbaa !8
  %144 = getelementptr inbounds nuw %struct.KINMemRec, ptr %143, i32 0, i32 84
  store i32 1, ptr %144, align 8, !tbaa !77
  %145 = load ptr, ptr %4, align 8, !tbaa !8
  %146 = getelementptr inbounds nuw %struct.KINMemRec, ptr %145, i32 0, i32 85
  store double 0.000000e+00, ptr %146, align 8, !tbaa !78
  %147 = load ptr, ptr %4, align 8, !tbaa !8
  %148 = getelementptr inbounds nuw %struct.KINMemRec, ptr %147, i32 0, i32 86
  store double 1.000000e-05, ptr %148, align 8, !tbaa !79
  %149 = load ptr, ptr %4, align 8, !tbaa !8
  %150 = getelementptr inbounds nuw %struct.KINMemRec, ptr %149, i32 0, i32 87
  store double 9.000000e-01, ptr %150, align 8, !tbaa !80
  %151 = load ptr, ptr %4, align 8, !tbaa !8
  %152 = getelementptr inbounds nuw %struct.KINMemRec, ptr %151, i32 0, i32 71
  store i64 17, ptr %152, align 8, !tbaa !81
  %153 = load ptr, ptr %4, align 8, !tbaa !8
  %154 = getelementptr inbounds nuw %struct.KINMemRec, ptr %153, i32 0, i32 72
  store i64 22, ptr %154, align 8, !tbaa !82
  %155 = load ptr, ptr %4, align 8, !tbaa !8
  %156 = getelementptr inbounds nuw %struct.KINMemRec, ptr %155, i32 0, i32 69
  store i64 0, ptr %156, align 8, !tbaa !83
  %157 = load ptr, ptr %4, align 8, !tbaa !8
  %158 = getelementptr inbounds nuw %struct.KINMemRec, ptr %157, i32 0, i32 70
  store i64 0, ptr %158, align 8, !tbaa !84
  %159 = load ptr, ptr %4, align 8, !tbaa !8
  store ptr %159, ptr %2, align 8
  store i32 1, ptr %6, align 4
  br label %160

160:                                              ; preds = %121, %14, %9
  call void @llvm.lifetime.end.p0(i64 8, ptr %5) #10
  call void @llvm.lifetime.end.p0(i64 8, ptr %4) #10
  %161 = load ptr, ptr %2, align 8
  ret ptr %161
}