; Function Attrs: nounwind uwtable
define noalias noundef ptr @KINCreate(ptr noundef %0) local_unnamed_addr #0 {
  %2 = icmp eq ptr %0, null
  br i1 %2, label %3, label %4

3:                                                ; preds = %1
  tail call void (ptr, i32, i32, ptr, ptr, ptr, ...) @KINProcessError(ptr noundef null, i32 noundef 0, i32 noundef 219, ptr noundef nonnull @__func__.KINCreate, ptr noundef nonnull @.str, ptr noundef nonnull @.str.1)
  br label %33

4:                                                ; preds = %1
  %calloc = tail call dereferenceable_or_null(672) ptr @calloc(i64 1, i64 672)
  %5 = icmp eq ptr %calloc, null
  br i1 %5, label %6, label %7

6:                                                ; preds = %4
  tail call void (ptr, i32, i32, ptr, ptr, ptr, ...) @KINProcessError(ptr noundef null, i32 noundef 0, i32 noundef 227, ptr noundef nonnull @__func__.KINCreate, ptr noundef nonnull @.str, ptr noundef nonnull @.str.2)
  br label %33

7:                                                ; preds = %4
  store ptr %0, ptr %calloc, align 8, !tbaa !3
  %8 = getelementptr inbounds nuw i8, ptr %calloc, i64 8
  store double 0x3CB0000000000000, ptr %8, align 8, !tbaa !17
  %9 = getelementptr inbounds nuw i8, ptr %calloc, i64 360
  store double 1.000000e+00, ptr %9, align 8, !tbaa !18
  %10 = getelementptr inbounds nuw i8, ptr %calloc, i64 408
  store double 1.000000e+00, ptr %10, align 8, !tbaa !19
  %11 = getelementptr inbounds nuw i8, ptr %calloc, i64 56
  store i64 200, ptr %11, align 8, !tbaa !20
  %12 = getelementptr inbounds nuw i8, ptr %calloc, i64 64
  store i64 10, ptr %12, align 8, !tbaa !21
  %13 = getelementptr inbounds nuw i8, ptr %calloc, i64 72
  store i64 5, ptr %13, align 8, !tbaa !22
  %14 = getelementptr inbounds nuw i8, ptr %calloc, i64 80
  store i64 10, ptr %14, align 8, !tbaa !23
  %15 = getelementptr inbounds nuw i8, ptr %calloc, i64 200
  store double 2.000000e+00, ptr %15, align 8, !tbaa !24
  %16 = getelementptr inbounds nuw i8, ptr %calloc, i64 136
  store double 0x3E50000000000000, ptr %16, align 8, !tbaa !25
  %17 = tail call double @SUNRpowerR(double noundef 0x3CB0000000000000, double noundef 0x3FE5555555555556) #15
  %18 = getelementptr inbounds nuw i8, ptr %calloc, i64 40
  store double %17, ptr %18, align 8, !tbaa !26
  %19 = tail call double @SUNRpowerR(double noundef 0x3CB0000000000000, double noundef 0x3FD5555555555555) #15
  %20 = getelementptr inbounds nuw i8, ptr %calloc, i64 32
  store double %19, ptr %20, align 8, !tbaa !27
  %21 = getelementptr inbounds nuw i8, ptr %calloc, i64 88
  store i32 1, ptr %21, align 8, !tbaa !28
  %22 = getelementptr inbounds nuw i8, ptr %calloc, i64 168
  store double 1.000000e-01, ptr %22, align 8, !tbaa !29
  %23 = getelementptr inbounds nuw i8, ptr %calloc, i64 184
  store double 2.000000e+00, ptr %23, align 8, !tbaa !30
  %24 = getelementptr inbounds nuw i8, ptr %calloc, i64 176
  store double 9.000000e-01, ptr %24, align 8, !tbaa !31
  %25 = getelementptr inbounds nuw i8, ptr %calloc, i64 664
  store i32 0, ptr %25, align 8, !tbaa !32
  %26 = getelementptr inbounds nuw i8, ptr %calloc, i64 632
  store i32 1, ptr %26, align 8, !tbaa !33
  %27 = getelementptr inbounds nuw i8, ptr %calloc, i64 640
  store double 0.000000e+00, ptr %27, align 8, !tbaa !34
  %28 = getelementptr inbounds nuw i8, ptr %calloc, i64 648
  store double 1.000000e-05, ptr %28, align 8, !tbaa !35
  %29 = getelementptr inbounds nuw i8, ptr %calloc, i64 656
  store double 9.000000e-01, ptr %29, align 8, !tbaa !36
  %30 = getelementptr inbounds nuw i8, ptr %calloc, i64 528
  store i64 17, ptr %30, align 8, !tbaa !37
  %31 = getelementptr inbounds nuw i8, ptr %calloc, i64 536
  store i64 22, ptr %31, align 8, !tbaa !38
  %32 = getelementptr inbounds nuw i8, ptr %calloc, i64 512
  tail call void @llvm.memset.p0.i64(ptr noundef nonnull align 8 dereferenceable(16) %32, i8 0, i64 16, i1 false)
  br label %33

33:                                               ; preds = %7, %6, %3
  %.0 = phi ptr [ null, %3 ], [ null, %6 ], [ %calloc, %7 ]
  ret ptr %.0
}